target datalayout = "e-m:e-p270:32:32-p271:32:32-p272:64:64-i64:64-i128:128-f80:128-n8:16:32:64-S128"
target triple = "x86_64-pc-linux-gnu"

%struct.expert_field = type { i32, i32 }

@ei_gsm_a_bssmap_extraneous_data = internal global %struct.expert_field zeroinitializer, align 4
@hf_gsm_a_bssmap_enc_info_key = internal global i32 0, align 4
@hf_gsm_a_bssmap_gsm_a5_1 = internal global i32 0, align 4
@hf_gsm_a_bssmap_gsm_a5_2 = internal global i32 0, align 4
@hf_gsm_a_bssmap_gsm_a5_3 = internal global i32 0, align 4
@hf_gsm_a_bssmap_gsm_a5_4 = internal global i32 0, align 4
@hf_gsm_a_bssmap_gsm_a5_5 = internal global i32 0, align 4
@hf_gsm_a_bssmap_gsm_a5_6 = internal global i32 0, align 4
@hf_gsm_a_bssmap_gsm_a5_7 = internal global i32 0, align 4
@hf_gsm_a_bssmap_no_encryption = internal global i32 0, align 4

; Function Attrs: null_pointer_is_valid sspstrong uwtable
define internal zeroext i16 @be_enc_info(ptr noundef %0, ptr noundef %1, ptr noundef %2, i32 noundef %3, i32 noundef %4, ptr noundef %5, i32 noundef %6) #1 {
  %8 = alloca i16, align 2
  %9 = alloca ptr, align 8
  %10 = alloca ptr, align 8
  %11 = alloca ptr, align 8
  %12 = alloca i32, align 4
  %13 = alloca i32, align 4
  %14 = alloca ptr, align 8
  %15 = alloca i32, align 4
  %16 = alloca i32, align 4
  %17 = alloca i32, align 4
  store ptr %0, ptr %9, align 8
  store ptr %1, ptr %10, align 8
  store ptr %2, ptr %11, align 8
  store i32 %3, ptr %12, align 4
  store i32 %4, ptr %13, align 4
  store ptr %5, ptr %14, align 8
  store i32 %6, ptr %15, align 4
  call void @llvm.lifetime.start.p0(i64 4, ptr %16) #5
  %18 = load i32, ptr %12, align 4
  store i32 %18, ptr %16, align 4
  %19 = load ptr, ptr %10, align 8
  %20 = load i32, ptr @hf_gsm_a_bssmap_gsm_a5_7, align 4
  %21 = load ptr, ptr %9, align 8
  %22 = load i32, ptr %16, align 4
  %23 = call ptr @proto_tree_add_item(ptr noundef %19, i32 noundef %20, ptr noundef %21, i32 noundef %22, i32 noundef 1, i32 noundef 0)
  %24 = load ptr, ptr %10, align 8
  %25 = load i32, ptr @hf_gsm_a_bssmap_gsm_a5_6, align 4
  %26 = load ptr, ptr %9, align 8
  %27 = load i32, ptr %16, align 4
  %28 = call ptr @proto_tree_add_item(ptr noundef %24, i32 noundef %25, ptr noundef %26, i32 noundef %27, i32 noundef 1, i32 noundef 0)
  %29 = load ptr, ptr %10, align 8
  %30 = load i32, ptr @hf_gsm_a_bssmap_gsm_a5_5, align 4
  %31 = load ptr, ptr %9, align 8
  %32 = load i32, ptr %16, align 4
  %33 = call ptr @proto_tree_add_item(ptr noundef %29, i32 noundef %30, ptr noundef %31, i32 noundef %32, i32 noundef 1, i32 noundef 0)
  %34 = load ptr, ptr %10, align 8
  %35 = load i32, ptr @hf_gsm_a_bssmap_gsm_a5_4, align 4
  %36 = load ptr, ptr %9, align 8
  %37 = load i32, ptr %16, align 4
  %38 = call ptr @proto_tree_add_item(ptr noundef %34, i32 noundef %35, ptr noundef %36, i32 noundef %37, i32 noundef 1, i32 noundef 0)
  %39 = load ptr, ptr %10, align 8
  %40 = load i32, ptr @hf_gsm_a_bssmap_gsm_a5_3, align 4
  %41 = load ptr, ptr %9, align 8
  %42 = load i32, ptr %16, align 4
  %43 = call ptr @proto_tree_add_item(ptr noundef %39, i32 noundef %40, ptr noundef %41, i32 noundef %42, i32 noundef 1, i32 noundef 0)
  %44 = load ptr, ptr %10, align 8
  %45 = load i32, ptr @hf_gsm_a_bssmap_gsm_a5_2, align 4
  %46 = load ptr, ptr %9, align 8
  %47 = load i32, ptr %16, align 4
  %48 = call ptr @proto_tree_add_item(ptr noundef %44, i32 noundef %45, ptr noundef %46, i32 noundef %47, i32 noundef 1, i32 noundef 0)
  %49 = load ptr, ptr %10, align 8
  %50 = load i32, ptr @hf_gsm_a_bssmap_gsm_a5_1, align 4
  %51 = load ptr, ptr %9, align 8
  %52 = load i32, ptr %16, align 4
  %53 = call ptr @proto_tree_add_item(ptr noundef %49, i32 noundef %50, ptr noundef %51, i32 noundef %52, i32 noundef 1, i32 noundef 0)
  %54 = load ptr, ptr %10, align 8
  %55 = load i32, ptr @hf_gsm_a_bssmap_no_encryption, align 4
  %56 = load ptr, ptr %9, align 8
  %57 = load i32, ptr %16, align 4
  %58 = call ptr @proto_tree_add_item(ptr noundef %54, i32 noundef %55, ptr noundef %56, i32 noundef %57, i32 noundef 1, i32 noundef 0)
  %59 = load i32, ptr %16, align 4
  %60 = add i32 %59, 1
  store i32 %60, ptr %16, align 4
  %61 = load i32, ptr %13, align 4
  %62 = load i32, ptr %16, align 4
  %63 = load i32, ptr %12, align 4
  %64 = sub i32 %62, %63
  %65 = icmp ule i32 %61, %64
  br i1 %65, label %66, label %69

66:                                               ; preds = %7
  %67 = load i32, ptr %13, align 4
  %68 = trunc i32 %67 to i16
  store i16 %68, ptr %8, align 2
  store i32 1, ptr %17, align 4
  br label %115

69:                                               ; preds = %7
  %70 = load ptr, ptr %10, align 8
  %71 = load i32, ptr @hf_gsm_a_bssmap_enc_info_key, align 4
  %72 = load ptr, ptr %9, align 8
  %73 = load i32, ptr %16, align 4
  %74 = load i32, ptr %13, align 4
  %75 = load i32, ptr %16, align 4
  %76 = load i32, ptr %12, align 4
  %77 = sub i32 %75, %76
  %78 = sub i32 %74, %77
  %79 = call ptr @proto_tree_add_item(ptr noundef %70, i32 noundef %71, ptr noundef %72, i32 noundef %73, i32 noundef %78, i32 noundef 0)
  %80 = load i32, ptr %13, align 4
  %81 = load i32, ptr %16, align 4
  %82 = load i32, ptr %12, align 4
  %83 = sub i32 %81, %82
  %84 = sub i32 %80, %83
  %85 = load i32, ptr %16, align 4
  %86 = add i32 %85, %84
  store i32 %86, ptr %16, align 4
  %87 = load i32, ptr %13, align 4
  %88 = load i32, ptr %16, align 4
  %89 = load i32, ptr %12, align 4
  %90 = sub i32 %88, %89
  %91 = icmp ugt i32 %87, %90
  br i1 %91, label %92, label %110

92:                                               ; preds = %69
  %93 = load ptr, ptr %10, align 8
  %94 = load ptr, ptr %11, align 8
  %95 = load ptr, ptr %9, align 8
  %96 = load i32, ptr %16, align 4
  %97 = load i32, ptr %13, align 4
  %98 = load i32, ptr %16, align 4
  %99 = load i32, ptr %12, align 4
  %100 = sub i32 %98, %99
  %101 = sub i32 %97, %100
  %102 = call ptr @proto_tree_add_expert(ptr noundef %93, ptr noundef %94, ptr noundef @ei_gsm_a_bssmap_extraneous_data, ptr noundef %95, i32 noundef %96, i32 noundef %101)
  %103 = load i32, ptr %13, align 4
  %104 = load i32, ptr %16, align 4
  %105 = load i32, ptr %12, align 4
  %106 = sub i32 %104, %105
  %107 = sub i32 %103, %106
  %108 = load i32, ptr %16, align 4
  %109 = add i32 %108, %107
  store i32 %109, ptr %16, align 4
  br label %110

110:                                              ; preds = %92, %69
  %111 = load i32, ptr %16, align 4
  %112 = load i32, ptr %12, align 4
  %113 = sub i32 %111, %112
  %114 = trunc i32 %113 to i16
  store i16 %114, ptr %8, align 2
  store i32 1, ptr %17, align 4
  br label %115

115:                                              ; preds = %110, %66
  call void @llvm.lifetime.end.p0(i64 4, ptr %16) #5
  %116 = load i16, ptr %8, align 2
  ret i16 %116
}